; Function Attrs: mustprogress nounwind uwtable
define dso_local void @_ZNK5clang22ComparisonCategoryInfo9ValueInfo11getIntValueEv(ptr dead_on_unwind noalias writable sret(%"class.llvm::APSInt") align 8 %0, ptr nocapture noundef nonnull readonly align 8 dereferenceable(16) %1) local_unnamed_addr #0 align 2 {
  %3 = getelementptr inbounds nuw i8, ptr %1, i64 8
  %4 = load ptr, ptr %3, align 8
  %5 = tail call noundef ptr @_ZNK5clang7VarDecl13evaluateValueEv(ptr noundef nonnull align 8 dereferenceable(100) %4) #13
  %6 = getelementptr inbounds nuw i8, ptr %5, i64 8
  %7 = load ptr, ptr %6, align 8
  %8 = getelementptr inbounds i8, ptr %5, i64 16
  %9 = load i32, ptr %8, align 8
  %10 = zext i32 %9 to i64
  %11 = getelementptr inbounds %"class.clang::APValue", ptr %7, i64 %10, i32 2
  %12 = getelementptr inbounds nuw i8, ptr %0, i64 8
  %13 = getelementptr inbounds nuw i8, ptr %11, i64 8
  %14 = load i32, ptr %13, align 8
  store i32 %14, ptr %12, align 8
  %15 = icmp ult i32 %14, 65
  br i1 %15, label %16, label %18

16:                                               ; preds = %2
  %17 = load i64, ptr %11, align 8
  store i64 %17, ptr %0, align 8
  br label %_ZN4llvm6APSIntC2ERKS0_.exit

18:                                               ; preds = %2
  tail call void @_ZN4llvm5APInt12initSlowCaseERKS0_(ptr noundef nonnull align 8 dereferenceable(12) %0, ptr noundef nonnull align 8 dereferenceable(12) %11) #13
  br label %_ZN4llvm6APSIntC2ERKS0_.exit

_ZN4llvm6APSIntC2ERKS0_.exit:                     ; preds = %16, %18
  %19 = getelementptr inbounds nuw i8, ptr %0, i64 12
  %20 = getelementptr inbounds nuw i8, ptr %11, i64 12
  %21 = load i8, ptr %20, align 4
  %22 = and i8 %21, 1
  store i8 %22, ptr %19, align 4
  ret void
}